target datalayout = "e-m:e-p270:32:32-p271:32:32-p272:64:64-i64:64-i128:128-f80:128-n8:16:32:64-S128"
target triple = "x86_64-pc-linux-gnu"

@Curl_parse_interface.if_prefix = internal constant [4 x i8] c"if!\00", align 1
@Curl_parse_interface.host_prefix = internal constant [6 x i8] c"host!\00", align 1
@Curl_parse_interface.if_host_prefix = internal constant [8 x i8] c"ifhost!\00", align 1
@Curl_cfree = external global ptr, align 8

; Function Attrs: nounwind uwtable
define hidden i32 @Curl_parse_interface(ptr noundef %0, ptr noundef %1, ptr noundef %2, ptr noundef %3) #0 {
  %5 = alloca i32, align 4
  %6 = alloca ptr, align 8
  %7 = alloca ptr, align 8
  %8 = alloca ptr, align 8
  %9 = alloca ptr, align 8
  %10 = alloca i64, align 8
  %11 = alloca i32, align 4
  %12 = alloca ptr, align 8
  store ptr %0, ptr %6, align 8, !tbaa !112
  store ptr %1, ptr %7, align 8, !tbaa !113
  store ptr %2, ptr %8, align 8, !tbaa !113
  store ptr %3, ptr %9, align 8, !tbaa !113
  call void @llvm.lifetime.start.p0(i64 8, ptr %10) #9
  br label %13

13:                                               ; preds = %4
  br label %14

14:                                               ; preds = %13
  br label %15

15:                                               ; preds = %14
  br label %16

16:                                               ; preds = %15
  br label %17

17:                                               ; preds = %16
  br label %18

18:                                               ; preds = %17
  br label %19

19:                                               ; preds = %18
  br label %20

20:                                               ; preds = %19
  br label %21

21:                                               ; preds = %20
  %22 = load ptr, ptr %6, align 8, !tbaa !112
  %23 = call i64 @strlen(ptr noundef %22) #10
  store i64 %23, ptr %10, align 8, !tbaa !115
  %24 = load i64, ptr %10, align 8, !tbaa !115
  %25 = icmp ugt i64 %24, 512
  br i1 %25, label %26, label %27

26:                                               ; preds = %21
  store i32 43, ptr %5, align 4
  store i32 1, ptr %11, align 4
  br label %141

27:                                               ; preds = %21
  %28 = load ptr, ptr %6, align 8, !tbaa !112
  %29 = call i32 @strncmp(ptr noundef @Curl_parse_interface.if_prefix, ptr noundef %28, i64 noundef 3) #10
  %30 = icmp ne i32 %29, 0
  br i1 %30, label %48, label %31

31:                                               ; preds = %27
  %32 = load ptr, ptr %6, align 8, !tbaa !112
  %33 = getelementptr inbounds nuw i8, ptr %32, i64 3
  store ptr %33, ptr %6, align 8, !tbaa !112
  %34 = load ptr, ptr %6, align 8, !tbaa !112
  %35 = load i8, ptr %34, align 1, !tbaa !116
  %36 = icmp ne i8 %35, 0
  br i1 %36, label %38, label %37

37:                                               ; preds = %31
  store i32 43, ptr %5, align 4
  store i32 1, ptr %11, align 4
  br label %141

38:                                               ; preds = %31
  %39 = load ptr, ptr %6, align 8, !tbaa !112
  %40 = load i64, ptr %10, align 8, !tbaa !115
  %41 = sub i64 %40, 3
  %42 = call ptr @Curl_memdup0(ptr noundef %39, i64 noundef %41)
  %43 = load ptr, ptr %8, align 8, !tbaa !113
  store ptr %42, ptr %43, align 8, !tbaa !112
  %44 = load ptr, ptr %8, align 8, !tbaa !113
  %45 = load ptr, ptr %44, align 8, !tbaa !112
  %46 = icmp ne ptr %45, null
  %47 = select i1 %46, i32 0, i32 27
  store i32 %47, ptr %5, align 4
  store i32 1, ptr %11, align 4
  br label %141

48:                                               ; preds = %27
  %49 = load ptr, ptr %6, align 8, !tbaa !112
  %50 = call i32 @strncmp(ptr noundef @Curl_parse_interface.host_prefix, ptr noundef %49, i64 noundef 5) #10
  %51 = icmp ne i32 %50, 0
  br i1 %51, label %69, label %52

52:                                               ; preds = %48
  %53 = load ptr, ptr %6, align 8, !tbaa !112
  %54 = getelementptr inbounds nuw i8, ptr %53, i64 5
  store ptr %54, ptr %6, align 8, !tbaa !112
  %55 = load ptr, ptr %6, align 8, !tbaa !112
  %56 = load i8, ptr %55, align 1, !tbaa !116
  %57 = icmp ne i8 %56, 0
  br i1 %57, label %59, label %58

58:                                               ; preds = %52
  store i32 43, ptr %5, align 4
  store i32 1, ptr %11, align 4
  br label %141

59:                                               ; preds = %52
  %60 = load ptr, ptr %6, align 8, !tbaa !112
  %61 = load i64, ptr %10, align 8, !tbaa !115
  %62 = sub i64 %61, 5
  %63 = call ptr @Curl_memdup0(ptr noundef %60, i64 noundef %62)
  %64 = load ptr, ptr %9, align 8, !tbaa !113
  store ptr %63, ptr %64, align 8, !tbaa !112
  %65 = load ptr, ptr %9, align 8, !tbaa !113
  %66 = load ptr, ptr %65, align 8, !tbaa !112
  %67 = icmp ne ptr %66, null
  %68 = select i1 %67, i32 0, i32 27
  store i32 %68, ptr %5, align 4
  store i32 1, ptr %11, align 4
  br label %141

69:                                               ; preds = %48
  %70 = load ptr, ptr %6, align 8, !tbaa !112
  %71 = call i32 @strncmp(ptr noundef @Curl_parse_interface.if_host_prefix, ptr noundef %70, i64 noundef 7) #10
  %72 = icmp ne i32 %71, 0
  br i1 %72, label %125, label %73

73:                                               ; preds = %69
  call void @llvm.lifetime.start.p0(i64 8, ptr %12) #9
  %74 = load ptr, ptr %6, align 8, !tbaa !112
  %75 = getelementptr inbounds nuw i8, ptr %74, i64 7
  store ptr %75, ptr %6, align 8, !tbaa !112
  %76 = load i64, ptr %10, align 8, !tbaa !115
  %77 = sub i64 %76, 7
  store i64 %77, ptr %10, align 8, !tbaa !115
  %78 = load ptr, ptr %6, align 8, !tbaa !112
  %79 = load i64, ptr %10, align 8, !tbaa !115
  %80 = call ptr @memchr(ptr noundef %78, i32 noundef 33, i64 noundef %79) #10
  store ptr %80, ptr %12, align 8, !tbaa !112
  %81 = load ptr, ptr %12, align 8, !tbaa !112
  %82 = icmp ne ptr %81, null
  br i1 %82, label %83, label %88

83:                                               ; preds = %73
  %84 = load ptr, ptr %12, align 8, !tbaa !112
  %85 = getelementptr inbounds i8, ptr %84, i64 1
  %86 = load i8, ptr %85, align 1, !tbaa !116
  %87 = icmp ne i8 %86, 0
  br i1 %87, label %89, label %88

88:                                               ; preds = %83, %73
  store i32 43, ptr %5, align 4
  store i32 1, ptr %11, align 4
  br label %124

89:                                               ; preds = %83
  %90 = load ptr, ptr %6, align 8, !tbaa !112
  %91 = load ptr, ptr %12, align 8, !tbaa !112
  %92 = load ptr, ptr %6, align 8, !tbaa !112
  %93 = ptrtoint ptr %91 to i64
  %94 = ptrtoint ptr %92 to i64
  %95 = sub i64 %93, %94
  %96 = call ptr @Curl_memdup0(ptr noundef %90, i64 noundef %95)
  %97 = load ptr, ptr %8, align 8, !tbaa !113
  store ptr %96, ptr %97, align 8, !tbaa !112
  %98 = load ptr, ptr %8, align 8, !tbaa !113
  %99 = load ptr, ptr %98, align 8, !tbaa !112
  %100 = icmp ne ptr %99, null
  br i1 %100, label %102, label %101

101:                                              ; preds = %89
  store i32 27, ptr %5, align 4
  store i32 1, ptr %11, align 4
  br label %124

102:                                              ; preds = %89
  %103 = load ptr, ptr %12, align 8, !tbaa !112
  %104 = getelementptr inbounds nuw i8, ptr %103, i32 1
  store ptr %104, ptr %12, align 8, !tbaa !112
  %105 = load ptr, ptr %12, align 8, !tbaa !112
  %106 = load i64, ptr %10, align 8, !tbaa !115
  %107 = load ptr, ptr %12, align 8, !tbaa !112
  %108 = load ptr, ptr %6, align 8, !tbaa !112
  %109 = ptrtoint ptr %107 to i64
  %110 = ptrtoint ptr %108 to i64
  %111 = sub i64 %109, %110
  %112 = sub i64 %106, %111
  %113 = call ptr @Curl_memdup0(ptr noundef %105, i64 noundef %112)
  %114 = load ptr, ptr %9, align 8, !tbaa !113
  store ptr %113, ptr %114, align 8, !tbaa !112
  %115 = load ptr, ptr %9, align 8, !tbaa !113
  %116 = load ptr, ptr %115, align 8, !tbaa !112
  %117 = icmp ne ptr %116, null
  br i1 %117, label %123, label %118

118:                                              ; preds = %102
  %119 = load ptr, ptr @Curl_cfree, align 8, !tbaa !117
  %120 = load ptr, ptr %8, align 8, !tbaa !113
  %121 = load ptr, ptr %120, align 8, !tbaa !112
  call void %119(ptr noundef %121)
  %122 = load ptr, ptr %8, align 8, !tbaa !113
  store ptr null, ptr %122, align 8, !tbaa !112
  store i32 27, ptr %5, align 4
  store i32 1, ptr %11, align 4
  br label %124

123:                                              ; preds = %102
  store i32 0, ptr %5, align 4
  store i32 1, ptr %11, align 4
  br label %124

124:                                              ; preds = %123, %118, %101, %88
  call void @llvm.lifetime.end.p0(i64 8, ptr %12) #9
  br label %141

125:                                              ; preds = %69
  br label %126

126:                                              ; preds = %125
  br label %127

127:                                              ; preds = %126
  %128 = load ptr, ptr %6, align 8, !tbaa !112
  %129 = load i8, ptr %128, align 1, !tbaa !116
  %130 = icmp ne i8 %129, 0
  br i1 %130, label %132, label %131

131:                                              ; preds = %127
  store i32 43, ptr %5, align 4
  store i32 1, ptr %11, align 4
  br label %141

132:                                              ; preds = %127
  %133 = load ptr, ptr %6, align 8, !tbaa !112
  %134 = load i64, ptr %10, align 8, !tbaa !115
  %135 = call ptr @Curl_memdup0(ptr noundef %133, i64 noundef %134)
  %136 = load ptr, ptr %7, align 8, !tbaa !113
  store ptr %135, ptr %136, align 8, !tbaa !112
  %137 = load ptr, ptr %7, align 8, !tbaa !113
  %138 = load ptr, ptr %137, align 8, !tbaa !112
  %139 = icmp ne ptr %138, null
  %140 = select i1 %139, i32 0, i32 27
  store i32 %140, ptr %5, align 4
  store i32 1, ptr %11, align 4
  br label %141

141:                                              ; preds = %132, %131, %124, %59, %58, %38, %37, %26
  call void @llvm.lifetime.end.p0(i64 8, ptr %10) #9
  %142 = load i32, ptr %5, align 4
  ret i32 %142
}