; Function Attrs: nounwind uwtable
define hidden range(i32 0, 44) i32 @Curl_parse_interface(ptr noundef %0, ptr noundef writeonly captures(none) %1, ptr noundef captures(none) %2, ptr noundef writeonly captures(none) %3) local_unnamed_addr #2 {
  %5 = tail call i64 @strlen(ptr noundef nonnull dereferenceable(1) %0) #14
  %6 = icmp ugt i64 %5, 512
  br i1 %6, label %60, label %sub_0

sub_0:                                            ; preds = %4
  %7 = load i8, ptr %0, align 1
  %8 = zext i8 %7 to i32
  %9 = sub nsw i32 105, %8
  %.not57 = icmp eq i8 %7, 105
  br i1 %.not57, label %sub_1, label %.tail

sub_1:                                            ; preds = %sub_0
  %10 = getelementptr inbounds nuw i8, ptr %0, i64 1
  %11 = load i8, ptr %10, align 1
  %12 = zext i8 %11 to i32
  %13 = sub nsw i32 102, %12
  %.not58 = icmp eq i8 %11, 102
  br i1 %.not58, label %sub_2, label %.tail

sub_2:                                            ; preds = %sub_1
  %14 = getelementptr inbounds nuw i8, ptr %0, i64 2
  %15 = load i8, ptr %14, align 1
  %16 = zext i8 %15 to i32
  %17 = sub nsw i32 33, %16
  br label %.tail

.tail:                                            ; preds = %sub_0, %sub_1, %sub_2
  %18 = phi i32 [ %9, %sub_0 ], [ %13, %sub_1 ], [ %17, %sub_2 ]
  %.not = icmp eq i32 %18, 0
  br i1 %.not, label %19, label %26

19:                                               ; preds = %.tail
  %20 = getelementptr inbounds nuw i8, ptr %0, i64 3
  %21 = load i8, ptr %20, align 1, !tbaa !101
  %.not44 = icmp eq i8 %21, 0
  br i1 %.not44, label %60, label %22

22:                                               ; preds = %19
  %23 = add nsw i64 %5, -3
  %24 = tail call ptr @Curl_memdup0(ptr noundef nonnull %20, i64 noundef %23) #13
  store ptr %24, ptr %2, align 8, !tbaa !102
  %.not45 = icmp eq ptr %24, null
  %25 = select i1 %.not45, i32 27, i32 0
  br label %60

26:                                               ; preds = %.tail
  %27 = tail call i32 @strncmp(ptr noundef nonnull dereferenceable(6) @Curl_parse_interface.host_prefix, ptr noundef nonnull dereferenceable(1) %0, i64 noundef 5) #14
  %.not46 = icmp eq i32 %27, 0
  br i1 %.not46, label %28, label %35

28:                                               ; preds = %26
  %29 = getelementptr inbounds nuw i8, ptr %0, i64 5
  %30 = load i8, ptr %29, align 1, !tbaa !101
  %.not47 = icmp eq i8 %30, 0
  br i1 %.not47, label %60, label %31

31:                                               ; preds = %28
  %32 = add nsw i64 %5, -5
  %33 = tail call ptr @Curl_memdup0(ptr noundef nonnull %29, i64 noundef %32) #13
  store ptr %33, ptr %3, align 8, !tbaa !102
  %.not48 = icmp eq ptr %33, null
  %34 = select i1 %.not48, i32 27, i32 0
  br label %60

35:                                               ; preds = %26
  %36 = tail call i32 @strncmp(ptr noundef nonnull dereferenceable(8) @Curl_parse_interface.if_host_prefix, ptr noundef nonnull dereferenceable(1) %0, i64 noundef 7) #14
  %.not49 = icmp eq i32 %36, 0
  br i1 %.not49, label %37, label %56

37:                                               ; preds = %35
  %38 = getelementptr inbounds nuw i8, ptr %0, i64 7
  %39 = add nsw i64 %5, -7
  %40 = tail call ptr @memchr(ptr noundef nonnull %38, i32 noundef 33, i64 noundef %39) #14
  %.not50 = icmp eq ptr %40, null
  br i1 %.not50, label %60, label %41

41:                                               ; preds = %37
  %42 = getelementptr inbounds nuw i8, ptr %40, i64 1
  %43 = load i8, ptr %42, align 1, !tbaa !101
  %.not51 = icmp eq i8 %43, 0
  br i1 %.not51, label %60, label %44

44:                                               ; preds = %41
  %45 = ptrtoint ptr %40 to i64
  %46 = ptrtoint ptr %38 to i64
  %47 = sub i64 %45, %46
  %48 = tail call ptr @Curl_memdup0(ptr noundef nonnull %38, i64 noundef %47) #13
  store ptr %48, ptr %2, align 8, !tbaa !102
  %.not52 = icmp eq ptr %48, null
  br i1 %.not52, label %60, label %49

49:                                               ; preds = %44
  %50 = ptrtoint ptr %42 to i64
  %.neg = add i64 %39, %46
  %51 = sub i64 %.neg, %50
  %52 = tail call ptr @Curl_memdup0(ptr noundef nonnull %42, i64 noundef %51) #13
  store ptr %52, ptr %3, align 8, !tbaa !102
  %.not53 = icmp eq ptr %52, null
  br i1 %.not53, label %53, label %60

53:                                               ; preds = %49
  %54 = load ptr, ptr @Curl_cfree, align 8, !tbaa !103
  %55 = load ptr, ptr %2, align 8, !tbaa !102
  tail call void %54(ptr noundef %55) #13
  store ptr null, ptr %2, align 8, !tbaa !102
  br label %60

56:                                               ; preds = %35
  %.not54 = icmp eq i8 %7, 0
  br i1 %.not54, label %60, label %57

57:                                               ; preds = %56
  %58 = tail call ptr @Curl_memdup0(ptr noundef nonnull %0, i64 noundef %5) #13
  store ptr %58, ptr %1, align 8, !tbaa !102
  %.not55 = icmp eq ptr %58, null
  %59 = select i1 %.not55, i32 27, i32 0
  br label %60

60:                                               ; preds = %56, %53, %41, %37, %44, %49, %28, %19, %4, %57, %31, %22
  %.0 = phi i32 [ %59, %57 ], [ %34, %31 ], [ %25, %22 ], [ 43, %4 ], [ 43, %19 ], [ 43, %28 ], [ 27, %53 ], [ 43, %41 ], [ 43, %37 ], [ 27, %44 ], [ 0, %49 ], [ 43, %56 ]
  ret i32 %.0
}